target datalayout = "e-m:e-p270:32:32-p271:32:32-p272:64:64-i64:64-i128:128-f80:128-n8:16:32:64-S128"
target triple = "x86_64-pc-linux-gnu"

@lineCount = internal global i32 0, align 4
@.str.1 = private unnamed_addr constant [30 x i8] c"unterminated comment detected\00", align 1

; Function Attrs: nounwind uwtable
define internal signext i8 @isNewline(i32 noundef %0) #0 {
  %2 = alloca i8, align 1
  %3 = alloca i32, align 4
  store i32 %0, ptr %3, align 4, !tbaa !4
  %4 = load i32, ptr %3, align 4, !tbaa !4
  switch i32 %4, label %9 [
    i32 10, label %5
    i32 8233, label %5
    i32 13, label %8
  ]

5:                                                ; preds = %1, %1
  %6 = load i32, ptr @lineCount, align 4, !tbaa !4
  %7 = add nsw i32 %6, 1
  store i32 %7, ptr @lineCount, align 4, !tbaa !4
  br label %8

8:                                                ; preds = %1, %5
  store i8 1, ptr %2, align 1
  br label %10

9:                                                ; preds = %1
  store i8 0, ptr %2, align 1
  br label %10

10:                                               ; preds = %9, %8
  %11 = load i8, ptr %2, align 1
  ret i8 %11
}

; Function Attrs: nounwind uwtable
define internal void @seekUntilEndOfComment(ptr noundef %0, ptr noundef %1, ptr noundef %2) #0 {
  %4 = alloca ptr, align 8
  %5 = alloca ptr, align 8
  %6 = alloca ptr, align 8
  %7 = alloca i32, align 4
  %8 = alloca i32, align 4
  %9 = alloca i32, align 4
  %10 = alloca i32, align 4
  store ptr %0, ptr %4, align 8, !tbaa !8
  store ptr %1, ptr %5, align 8, !tbaa !11
  store ptr %2, ptr %6, align 8, !tbaa !15
  call void @llvm.lifetime.start.p0(i64 4, ptr %7) #4
  call void @llvm.lifetime.start.p0(i64 4, ptr %8) #4
  call void @llvm.lifetime.start.p0(i64 4, ptr %9) #4
  %11 = load ptr, ptr %6, align 8, !tbaa !15
  %12 = load i32, ptr %11, align 4, !tbaa !4
  %13 = icmp sgt i32 %12, 0
  br i1 %13, label %14, label %15

14:                                               ; preds = %3
  store i32 1, ptr %10, align 4
  br label %60

15:                                               ; preds = %3
  %16 = load i32, ptr @lineCount, align 4, !tbaa !4
  store i32 %16, ptr %9, align 4, !tbaa !4
  br label %17

17:                                               ; preds = %51, %15
  %18 = load ptr, ptr %4, align 8, !tbaa !8
  %19 = load ptr, ptr %6, align 8, !tbaa !15
  %20 = call i32 @ucbuf_getc(ptr noundef %18, ptr noundef %19)
  store i32 %20, ptr %7, align 4, !tbaa !4
  %21 = load i32, ptr %7, align 4, !tbaa !4
  %22 = icmp eq i32 %21, 42
  br i1 %22, label %23, label %34

23:                                               ; preds = %17
  %24 = load ptr, ptr %4, align 8, !tbaa !8
  %25 = load ptr, ptr %6, align 8, !tbaa !15
  %26 = call i32 @ucbuf_getc(ptr noundef %24, ptr noundef %25)
  store i32 %26, ptr %8, align 4, !tbaa !4
  %27 = load i32, ptr %8, align 4, !tbaa !4
  %28 = icmp ne i32 %27, 47
  br i1 %28, label %29, label %32

29:                                               ; preds = %23
  %30 = load i32, ptr %8, align 4, !tbaa !4
  %31 = load ptr, ptr %4, align 8, !tbaa !8
  call void @ucbuf_ungetc(i32 noundef %30, ptr noundef %31)
  br label %33

32:                                               ; preds = %23
  br label %53

33:                                               ; preds = %29
  br label %34

34:                                               ; preds = %33, %17
  %35 = load ptr, ptr %5, align 8, !tbaa !11
  %36 = icmp ne ptr %35, null
  br i1 %36, label %37, label %41

37:                                               ; preds = %34
  %38 = load ptr, ptr %5, align 8, !tbaa !11
  %39 = load i32, ptr %7, align 4, !tbaa !4
  %40 = load ptr, ptr %6, align 8, !tbaa !15
  call void @ustr_u32cat(ptr noundef %38, i32 noundef %39, ptr noundef %40)
  br label %41

41:                                               ; preds = %37, %34
  %42 = load i32, ptr %7, align 4, !tbaa !4
  %43 = call signext i8 @isNewline(i32 noundef %42)
  br label %44

44:                                               ; preds = %41
  %45 = load i32, ptr %7, align 4, !tbaa !4
  %46 = icmp ne i32 %45, -1
  br i1 %46, label %47, label %51

47:                                               ; preds = %44
  %48 = load ptr, ptr %6, align 8, !tbaa !15
  %49 = load i32, ptr %48, align 4, !tbaa !4
  %50 = icmp eq i32 %49, 0
  br label %51

51:                                               ; preds = %47, %44
  %52 = phi i1 [ false, %44 ], [ %50, %47 ]
  br i1 %52, label %17, label %53, !llvm.loop !25

53:                                               ; preds = %51, %32
  %54 = load i32, ptr %7, align 4, !tbaa !4
  %55 = icmp eq i32 %54, -1
  br i1 %55, label %56, label %59

56:                                               ; preds = %53
  %57 = load ptr, ptr %6, align 8, !tbaa !15
  store i32 3, ptr %57, align 4, !tbaa !4
  %58 = load i32, ptr %9, align 4, !tbaa !4
  call void (i32, ptr, ...) @error(i32 noundef %58, ptr noundef @.str.1)
  br label %59

59:                                               ; preds = %56, %53
  store i32 0, ptr %10, align 4
  br label %60

60:                                               ; preds = %59, %14
  call void @llvm.lifetime.end.p0(i64 4, ptr %9) #4
  call void @llvm.lifetime.end.p0(i64 4, ptr %8) #4
  call void @llvm.lifetime.end.p0(i64 4, ptr %7) #4
  %61 = load i32, ptr %10, align 4
  switch i32 %61, label %63 [
    i32 0, label %62
    i32 1, label %62
  ]

62:                                               ; preds = %60, %60
  ret void

63:                                               ; preds = %60
  unreachable
}