; Function Attrs: nounwind uwtable
define internal fastcc void @seekUntilEndOfComment(ptr noundef %0, ptr noundef %1, ptr noundef %2) unnamed_addr #1 {
  %4 = load i32, ptr %2, align 4, !tbaa !4
  %5 = icmp sgt i32 %4, 0
  br i1 %5, label %.critedge, label %6

6:                                                ; preds = %3
  %7 = load i32, ptr @lineCount, align 4, !tbaa !4
  %.not19 = icmp eq ptr %1, null
  br i1 %.not19, label %.split.us, label %.split

.split.us:                                        ; preds = %6, %14
  %8 = tail call i32 @ucbuf_getc(ptr noundef %0, ptr noundef nonnull %2) #5
  switch i32 %8, label %14 [
    i32 42, label %9
    i32 10, label %isNewline.exit.thread.us
    i32 8233, label %isNewline.exit.thread.us
    i32 -1, label %.split23.us
  ]

9:                                                ; preds = %.split.us
  %10 = tail call i32 @ucbuf_getc(ptr noundef %0, ptr noundef nonnull %2) #5
  %.not.us = icmp eq i32 %10, 47
  br i1 %.not.us, label %.critedge, label %11

11:                                               ; preds = %9
  tail call void @ucbuf_ungetc(i32 noundef %10, ptr noundef %0) #5
  br label %14

isNewline.exit.thread.us:                         ; preds = %.split.us, %.split.us
  %12 = load i32, ptr @lineCount, align 4, !tbaa !4
  %13 = add nsw i32 %12, 1
  store i32 %13, ptr @lineCount, align 4, !tbaa !4
  br label %14

14:                                               ; preds = %11, %.split.us, %isNewline.exit.thread.us
  %15 = load i32, ptr %2, align 4, !tbaa !4
  %16 = icmp eq i32 %15, 0
  br i1 %16, label %.split.us, label %.critedge, !llvm.loop !16

.split:                                           ; preds = %6, %24
  %17 = tail call i32 @ucbuf_getc(ptr noundef %0, ptr noundef nonnull %2) #5
  %18 = icmp eq i32 %17, 42
  br i1 %18, label %19, label %21

19:                                               ; preds = %.split
  %20 = tail call i32 @ucbuf_getc(ptr noundef %0, ptr noundef nonnull %2) #5
  %.not = icmp eq i32 %20, 47
  br i1 %.not, label %.critedge, label %.thread

.thread:                                          ; preds = %19
  tail call void @ucbuf_ungetc(i32 noundef %20, ptr noundef %0) #5
  tail call void @ustr_u32cat(ptr noundef nonnull %1, i32 noundef %17, ptr noundef nonnull %2) #5
  br label %24

21:                                               ; preds = %.split
  tail call void @ustr_u32cat(ptr noundef nonnull %1, i32 noundef %17, ptr noundef nonnull %2) #5
  switch i32 %17, label %24 [
    i32 10, label %isNewline.exit.thread
    i32 8233, label %isNewline.exit.thread
    i32 -1, label %.split23.us
  ]

isNewline.exit.thread:                            ; preds = %21, %21
  %22 = load i32, ptr @lineCount, align 4, !tbaa !4
  %23 = add nsw i32 %22, 1
  store i32 %23, ptr @lineCount, align 4, !tbaa !4
  br label %24

24:                                               ; preds = %.thread, %21, %isNewline.exit.thread
  %25 = load i32, ptr %2, align 4, !tbaa !4
  %26 = icmp eq i32 %25, 0
  br i1 %26, label %.split, label %.critedge, !llvm.loop !16

.split23.us:                                      ; preds = %21, %.split.us
  store i32 3, ptr %2, align 4, !tbaa !4
  tail call void (i32, ptr, ...) @error(i32 noundef %7, ptr noundef nonnull @.str.1) #5
  br label %.critedge

.critedge:                                        ; preds = %19, %24, %14, %9, %.split23.us, %3
  ret void
}